; Function Attrs: mustprogress nounwind uwtable
define hidden void @_ZN6google8protobuf8compiler4java23MessageBuilderGeneratorD0Ev(ptr noundef nonnull align 8 dereferenceable(88) %this) unnamed_addr #6 align 2 personality ptr @__gxx_personality_v0 {
entry:
  store ptr getelementptr inbounds ({ [5 x ptr] }, ptr @_ZTVN6google8protobuf8compiler4java23MessageBuilderGeneratorE, i64 0, i32 0, i64 2), ptr %this, align 8
  %oneofs_.i = getelementptr inbounds i8, ptr %this, i64 64
  invoke void @_ZN4absl12lts_2023080218container_internal5btreeINS1_10map_paramsIiPKN6google8protobuf15OneofDescriptorESt4lessIiESaISt4pairIKiS8_EELi256ELb0EEEE5clearEv(ptr noundef nonnull align 8 dereferenceable(24) %oneofs_.i)
          to label %_ZN6google8protobuf8compiler4java23MessageBuilderGeneratorD2Ev.exit unwind label %terminate.lpad.i.i.i.i.i.i

terminate.lpad.i.i.i.i.i.i:                       ; preds = %entry
  %0 = landingpad { ptr, i32 }
          catch ptr null
  %1 = extractvalue { ptr, i32 } %0, 0
  tail call void @__clang_call_terminate(ptr %1) #23
  unreachable

_ZN6google8protobuf8compiler4java23MessageBuilderGeneratorD2Ev.exit: ; preds = %entry
  %field_generators_.i = getelementptr inbounds i8, ptr %this, i64 32
  tail call void @_ZN6google8protobuf8compiler4java17FieldGeneratorMapINS2_23ImmutableFieldGeneratorEED1Ev(ptr noundef nonnull align 8 dereferenceable(32) %field_generators_.i) #24
  tail call void @_ZdlPv(ptr noundef nonnull %this) #26
  ret void
}